c__builtin__
set
p0
((lp1
Vgt
p2
aVgs
p3
aVgr
p4
aVgq
p5
aVdance
p6
aVglobal
p7
aVgy
p8
aVgg
p9
aVge
p10
aVgd
p11
aVtours
p12
aVga
p13
aVedu
p14
aVorg.my
p15
aVorg.mx
p16
aVgm
p17
aVvet
p18
aVk12.wi.us
p19
aVzone
p20
aVtv
p21
aVtw
p22
aVtt
p23
aVtn
p24
aVto
p25
aVtl
p26
aVtm
p27
aVco.mz
p28
aVtk
p29
aVtf
p30
aVtc
p31
aVorg.tr
p32
aVgen.tr
p33
aVpsc.br
p34
aVvix.br
p35
aVce.gov.br
p36
aVcool
p37
aVnom.pe
p38
aVms.gov.br
p39
aVscience
p40
aVmn
p41
aVcom.ro
p42
aVor.jp
p43
aVcom.bz
p44
aVdownload
p45
aVclick
p46
aVbusiness
p47
aVarq.br
p48
aVxz.cn
p49
aVasia
p50
aVweb.id
p51
aVedu.kg
p52
aVinternational
p53
aVnet
p54
aVtv.br
p55
aVcom.kw
p56
aVcom.kz
p57
aVmen
p58
aVfun
p59
aVcom.kh
p60
aVcasino
p61
aVpics
p62
aVdomains
p63
aVlove
p64
aVedu.co
p65
aVgob.mx
p66
aVwin
p67
aVfot.br
p68
aVvip
p69
aVtools
p70
aVmarket
p71
aVwang
p72
aVestate
p73
aVgob.do
p74
aVhospital
p75
aVnagoya
p76
aVlive
p77
aVco.id
p78
aVco.in
p79
aVtoday
p80
aVor.ug
p81
aVnet.gy
p82
aVclub
p83
aVooo
p84
aVtur.ar
p85
aVsite
p86
aVgv.ao
p87
aVme
p88
aVmd
p89
aVmg
p90
aVma
p91
aVml
p92
aVwork
p93
aVmk
p94
aVcat
p95
aVmu
p96
aVmp
p97
aVms
p98
aVmy
p99
aVmx
p100
aVmz
p101
aVcom.vn
p102
aVstream
p103
aVnet.ua
p104
aVcom.ve
p105
aVeng.br
p106
aVac.rs
p107
aVnet.tr
p108
aVorg.co
p109
aVorg.cn
p110
aVguru
p111
aVbialystok.pl
p112
aVne.jp
p113
aVfr
p114
aVgov.pk
p115
aVfarm
p116
aVkiev.ua
p117
aVac.uk
p118
aVdate
p119
aVfi
p120
aVovh
p121
aVme.uk
p122
aVsx
p123
aVsr
p124
aVlife
p125
aVsu
p126
aVst
p127
aVsk
p128
aVsi
p129
aVsh
p130
aVso
p131
aVsl
p132
aVsc
p133
aVsa
p134
aVsoftware
p135
aVsg
p136
aVse
p137
aVsd
p138
aVac.in
p139
aVac.id
p140
aVtrade
p141
aVorg.uk
p142
aVorg.ua
p143
aVgroup
p144
aVodessa.ua
p145
aVla
p146
aVnet.cn
p147
aVlk
p148
aVli
p149
aVlv
p150
aVlt
p151
aVlu
p152
aVsch.id
p153
aVvegas
p154
aVly
p155
aVceo
p156
aVor.id
p157
aVid.au
p158
aVedu.ec
p159
aVco.ug
p160
aVname
p161
aVco.uk
p162
aVrocks
p163
aVsp.gov.br
p164
aVszczecin.pl
p165
aVee
p166
aVeu
p167
aVes
p168
aVru
p169
aVrw
p170
aVnetwork
p171
aVcom.cn
p172
aVorg.gt
p173
aVre
p174
aVren
p175
aVkh.ua
p176
aVro
p177
aVred
p178
aVorg.ng
p179
aVpub
p180
aVkr.ua
p181
aVorg.nz
p182
aVorg
p183
aVorg.np
p184
aVcare
p185
aVedu.sd
p186
aVco.nz
p187
aVplace
p188
aVltd
p189
aVonl
p190
aVor.th
p191
aVone
p192
aVgov.lk
p193
aVor.tz
p194
aVmy.id
p195
aVorg.il
p196
aVtop
p197
aVxin
p198
aVedu.au
p199
aVgov.za
p200
aVnm.cn
p201
aVstore
p202
aVgo.ke
p203
aVcom.ua
p204
aVba.gov.br
p205
aVbel.tr
p206
aVcom.uy
p207
aVsuwalki.pl
p208
aVbet
p209
aVpro
p210
aVbr
p211
aVadv.br
p212
aVco.bw
p213
aVbc.ca
p214
aVcom.gt
p215
aVagency
p216
aVcom.gr
p217
aVgov.bd
p218
aVonline
p219
aVod.ua
p220
aVorg.rs
p221
aVgd.cn
p222
aVaccountants
p223
aVsd.cn
p224
aVservices
p225
aVnet.my
p226
aVbiz.id
p227
aVzp.ua
p228
aVsn.cn
p229
aVfutbol
p230
aVco.jp
p231
aVkr
p232
aVgob.ec
p233
aVkz
p234
aVwine
p235
aVshop
p236
aVshow
p237
aVedu.br
p238
aVsolutions
p239
aVb.br
p240
aVedu.bd
p241
aVcom.py
p242
aVedu.my
p243
aVedu.mx
p244
aVcom.pl
p245
aVcom.ph
p246
aVcom.pk
p247
aVcom.pe
p248
aVedu.mn
p249
aVdo
p250
aVdk
p251
aVgov.ph
p252
aVde
p253
aVreport
p254
aVeti.br
p255
aVcom.na
p256
aVcom.ng
p257
aVcom.nf
p258
aVcom.ni
p259
aVcom.np
p260
aVnet.mx
p261
aVblog.br
p262
aVreview
p263
aVexchange
p264
aVedu.pe
p265
aVgdn
p266
aVedu.pl
p267
aVedu.ph
p268
aVemail
p269
aVedu.pk
p270
aVwf
p271
aVjp
p272
aVjo
p273
aVws
p274
aVnews
p275
aVnet.in
p276
aVgob.ar
p277
aVspace
p278
aVac.at
p279
aVdesa.id
p280
aVnet.br
p281
aVbuzz
p282
aVcom
p283
aVci
p284
aVch
p285
aVco
p286
aVcn
p287
aVcm
p288
aVcl
p289
aVcc
p290
aVca
p291
aVcf
p292
aVnet.co
p293
aVcz
p294
aVcom.tr
p295
aVcom.tw
p296
aVCOM
p297
aVcv
p298
aVps
p299
aVorg.af
p300
aVco.rs
p301
aVpw
p302
aVpt
p303
aVg12.br
p304
aVorg.au
p305
aVpf
p306
aVedu.in
p307
aVorg.ar
p308
aVpk
p309
aVph
p310
aVCOm
p311
aVpl
p312
aVwebsite
p313
aVcom.mx
p314
aVcom.my
p315
aVfm.br
p316
aVaero
p317
aVcom.mt
p318
aVadm.br
p319
aVnet.pk
p320
aVcom.mk
p321
aVcom.mm
p322
aVnet.pe
p323
aVnet.pl
p324
aVcom.br
p325
aVcash
p326
aVcom.bd
p327
aVcom.ba
p328
aVcom.bo
p329
aVcom.bn
p330
aVvc
p331
aVvg
p332
aVis
p333
aVir
p334
aVit
p335
aVvn
p336
aVim
p337
aVio
p338
aVin
p339
aVorg.sg
p340
aVie
p341
aVid
p342
aVorg.sa
p343
aVeducation
p344
aVorg.za
p345
aVco.kr
p346
aVorg.gh
p347
aVorg.lk
p348
aVco.ke
p349
aVgov.my
p350
aVgov.mk
p351
aVac.bd
p352
aVedu.gh
p353
aVmobi
p354
aVcenter
p355
aVedu.ng
p356
aVedu.np
p357
aVcom.hr
p358
aVco.th
p359
aVclinic
p360
aVcom.hk
p361
aVtoscana.it
p362
aVsydney
p363
aVcom.au
p364
aVcom.ar
p365
aVloan
p366
aVgob.pe
p367
aVbid
p368
aVedu.tw
p369
aVbiz
p370
aVmom
p371
aVpress
p372
aVworld
p373
aVcom.tn
p374
aVedu.ua
p375
aVcom.fj
p376
aVcx
p377
aVsa.it
p378
aVtur.br
p379
aVworcs.sch.uk
p380
aVgo.gov.br
p381
aVgov.ng
p382
aVpet
p383
aVra.it
p384
aVlegal
p385
aVcloud
p386
aVin.ua
p387
aVnet.au
p388
aVnet.nz
p389
aVbe
p390
aVbf
p391
aVbg
p392
aVba
p393
aVbb
p394
aVxn--90ais
p395
aVbo
p396
aVbi
p397
aVhost
p398
aVind.in
p399
aVor.ke
p400
aVby
p401
aVbz
p402
aVfaith
p403
aVcafe
p404
aVmelbourne
p405
aVplus
p406
aVcom.sa
p407
aVgo.id
p408
aVcom.sg
p409
aVcom.ly
p410
aVco.zm
p411
aVac.tz
p412
aVon.ca
p413
aVinfo.pl
p414
aVxyz
p415
aVco.za
p416
aVrj.gov.br
p417
aVgo.th
p418
aVac.th
p419
aVco.zw
p420
aVeco.br
p421
aVcom.lb
p422
aVcom.es
p423
aVsx.cn
p424
aVedu.vn
p425
aVsupport
p426
aVagr.br
p427
aVcom.ec
p428
aVaccountant
p429
aVorg.in
p430
aVcom.eg
p431
aVcompany
p432
aVcricket
p433
aVhr
p434
aVpe
p435
aVht
p436
aVhu
p437
aVdelivery
p438
aVhk
p439
aVorg.pe
p440
aVhn
p441
aVco.ao
p442
aVorg.pl
p443
aVorg.pk
p444
aVinfo
p445
aVuy
p446
aVus
p447
aVqc.ca
p448
aVco.il
p449
aVuk
p450
aVug
p451
aVua
p452
aVae
p453
aVag
p454
aVaf
p455
aVai
p456
aVam
p457
aVal
p458
aVao
p459
aVac.cn
p460
aVas
p461
aVat
p462
aVink
p463
aVaz
p464
aVal.gov.br
p465
aVlink
p466
aVcodes
p467
aVnl
p468
aVno
p469
aVnc
p470
aVrs
p471
aVnf
p472
aVng
p473
aVnz
p474
aVtech
p475
aVnu
p476
aVco.tz
p477
aVxxx
p478
aVsc.ke
p479
aVfootball
p480
aVinf.br
p481
aVind.br
p482
aVcom.co
p483
aVorg.br
p484
aVxn--p1ai
p485
atp486
Rp487
.